
LIBRARY SuperDLL
DESCRIPTION "Normal DLL created in VB"
VERSION 3.1210
EXPORTS	
	SetDWordValue = ?SetDWordValue@modRegistry@@AAGXXZ
	GetDWordValue = ?GetDWordValue@modRegistry@@AAGXXZ
	SetBinaryValue = ?SetBinaryValue@modRegistry@@AAGXXZ
	GetBinaryValue = ?GetBinaryValue@modRegistry@@AAGXXZ
	SetStringValue = ?SetStringValue@modRegistry@@AAGXXZ
	GetStringValue = ?GetStringValue@modRegistry@@AAGXXZ
	CreateKey = ?CreateKey@modRegistry@@AAGXXZ
	DeleteKey = ?DeleteKey@modRegistry@@AAGXXZ
	DeleteKeyValue = ?DeleteKeyValue@modRegistry@@AAGXXZ
	KeyExist = ?KeyExist@modRegistry@@AAGXXZ
	KeyValueExist = ?KeyValueExist@modRegistry@@AAGXXZ
	BinToHexR = ?BinToHexR@modRegistry@@AAGXXZ
	BinToDecR = ?BinToDecR@modRegistry@@AAGXXZ
	BinToDecA = ?BinToDecA@modRegistry@@AAGXXZ
	BinToHexA = ?BinToHexA@modRegistry@@AAGXXZ
	EnumKey = ?EnumKey@modRegistry@@AAGXXZ
	QueryValue = ?QueryValue@modRegistry@@AAGXXZ
	isKeyDown = ?isKeyDown@modOther@@AAGXXZ
	isAnyKeyDown = ?isAnyKeyDown@modOther@@AAGXXZ
	Beep2 = ?Beep2@modOther@@AAGXXZ
	IsCharAlpha = ?IsCharAlpha@modOther@@AAGXXZ
	IsCharAlphaNumeric = ?IsCharAlphaNumeric@modOther@@AAGXXZ
	IsCharNumeric = ?IsCharNumeric@modOther@@AAGXXZ
	IsCharLower = ?IsCharLower@modOther@@AAGXXZ
	IsCharUpper = ?IsCharUpper@modOther@@AAGXXZ
	IsStringNumeric = ?IsStringNumeric@modOther@@AAGXXZ
	StopSound = ?StopSound@modOther@@AAGXXZ
	PlaySound = ?PlaySound@modOther@@AAGXXZ
	PlaySoundM = ?PlaySoundM@modOther@@AAGXXZ
	Sleep = ?Sleep@modOther@@AAGXXZ
	Sleep2 = ?Sleep2@modOther@@AAGXXZ
	Flash = ?Flash@modOther@@AAGXXZ
	isTransparent = ?isTransparent@modTrans@@AAGXXZ
	GetTrans = ?GetTrans@modTrans@@AAGXXZ
	FadeTo = ?FadeTo@modTrans@@AAGXXZ
	FadeIn = ?FadeIn@modTrans@@AAGXXZ
	FadeOut = ?FadeOut@modTrans@@AAGXXZ
	SetTrans = ?SetTrans@modTrans@@AAGXXZ
	MakeTrans = ?MakeTrans@modTrans@@AAGXXZ
	MakeOpaque = ?MakeOpaque@modTrans@@AAGXXZ
	FormDrag = ?FormDrag@modTrans@@AAGXXZ
	ShapeMe = ?ShapeMe@modTrans@@AAGXXZ
	MakeTransparent = ?MakeTransparent@modTrans@@AAGXXZ
	ChangeMask = ?ChangeMask@modTrans@@AAGXXZ
	CloseMCI = ?CloseMCI@modMCI@@AAGXXZ
	MoveMCI = ?MoveMCI@modMCI@@AAGXXZ
	MciCommand = ?MciCommand@modMCI@@AAGXXZ
	DecToHex = ?DecToHex@modCnvs@@AAGXXZ
	HexToDec = ?HexToDec@modCnvs@@AAGXXZ
	HexToBin = ?HexToBin@modCnvs@@AAGXXZ
	BinToHex = ?BinToHex@modCnvs@@AAGXXZ
	BinToDec = ?BinToDec@modCnvs@@AAGXXZ
	DecToBin = ?DecToBin@modCnvs@@AAGXXZ
	HiByte = ?HiByte@modCnvs@@AAGXXZ
	LoByte = ?LoByte@modCnvs@@AAGXXZ
	HiWord = ?HiWord@modCnvs@@AAGXXZ
	LoWord = ?LoWord@modCnvs@@AAGXXZ
	HiByteHiWord = ?HiByteHiWord@modCnvs@@AAGXXZ
	LoByteHiWord = ?LoByteHiWord@modCnvs@@AAGXXZ
	HiByteLoWord = ?HiByteLoWord@modCnvs@@AAGXXZ
	LoByteLoWord = ?LoByteLoWord@modCnvs@@AAGXXZ
	MakeWord = ?MakeWord@modCnvs@@AAGXXZ
	MakeDWordB = ?MakeDWordB@modCnvs@@AAGXXZ
	MakeDWordW = ?MakeDWordW@modCnvs@@AAGXXZ
	isNT2000XP = ?isNT2000XP@modWindows@@AAGXXZ
	SHUTDOWN = ?SHUTDOWN@modWindows@@AAGXXZ
	LOGOFF = ?LOGOFF@modWindows@@AAGXXZ
	REBOOT = ?REBOOT@modWindows@@AAGXXZ
	POWEROFF = ?POWEROFF@modWindows@@AAGXXZ
	LockComputer = ?LockComputer@modWindows@@AAGXXZ
	GetWindowsVersion = ?GetWindowsVersion@modWindows@@AAGXXZ
	AppPath = ?AppPath@modVB@@AAGXXZ
	Swap = ?Swap@modVB@@AAGXXZ
	Trim2 = ?Trim2@modVB@@AAGXXZ
	vbExecute = ?vbExecute@modVB@@AAGXXZ
	End2 = ?End2@modVB@@AAGXXZ
	Exec = ?Exec@modVB@@AAGXXZ
	Exec2 = ?Exec2@modVB@@AAGXXZ
	GetExitCode = ?GetExitCode@modVB@@AAGXXZ
	DriveType = ?DriveType@modVB@@AAGXXZ
	DriveTypeS = ?DriveTypeS@modVB@@AAGXXZ
	FileExist = ?FileExist@modVB@@AAGXXZ
	Filexist = ?Filexist@modVB@@AAGXXZ
	DirExist = ?DirExist@modVB@@AAGXXZ
	SetCurDir = ?SetCurDir@modVB@@AAGXXZ
	FreeSpace = ?FreeSpace@modVB@@AAGXXZ
	FileOrDirExist = ?FileOrDirExist@modVB@@AAGXXZ
	TreeFind = ?TreeFind@modVB@@AAGXXZ
	SearchFiles = ?SearchFiles@modVB@@AAGXXZ
	GetCurrentX = ?GetCurrentX@modGDI@@AAGXXZ
	GetCurrentY = ?GetCurrentY@modGDI@@AAGXXZ
	GetCurrentPosition = ?GetCurrentPosition@modGDI@@AAGXXZ
	MoveTo = ?MoveTo@modGDI@@AAGXXZ
	LineTo= ?LineTo@modGDI@@AAGXXZ
	GetPixel = ?GetPixel@modGDI@@AAGXXZ
	SetPixel = ?SetPixel@modGDI@@AAGXXZ
	DrawLine = ?DrawLine@modGDI@@AAGXXZ
	DrawTriangle = ?DrawTriangle@modGDI@@AAGXXZ
	DrawAngleCircle = ?DrawAngleCircle@modGDI@@AAGXXZ
	DrawAngleEllipse = ?DrawAngleEllipse@modGDI@@AAGXXZ
	DrawCircle = ?DrawCircle@modGDI@@AAGXXZ
	DrawEllipse = ?DrawEllipse@modGDI@@AAGXXZ
	DrawRectangle = ?DrawRectangle@modGDI@@AAGXXZ
	DrawRoundRect = ?DrawRoundRect@modGDI@@AAGXXZ
	SetColor = ?SetColor@modGDI@@AAGXXZ
	FloodFill = ?FloodFill@modGDI@@AAGXXZ
